target datalayout = "e-m:e-p270:32:32-p271:32:32-p272:64:64-i64:64-i128:128-f80:128-n8:16:32:64-S128"
target triple = "x86_64-pc-linux-gnu"

%struct.lexbor_mraw_t = type { ptr, ptr, i64 }
%struct.lexbor_bst = type { ptr, ptr, i64 }
%struct.lexbor_mem = type { ptr, ptr, i64, i64 }
%struct.lexbor_mem_chunk = type { ptr, i64, i64, ptr, ptr }

; Function Attrs: nounwind uwtable
define internal i64 @lexbor_mraw_data_size(ptr noundef %0) #0 {
  %2 = alloca ptr, align 8
  store ptr %0, ptr %2, align 8
  %3 = load ptr, ptr %2, align 8
  %4 = getelementptr inbounds i8, ptr %3, i64 -8
  %5 = load i64, ptr %4, align 8
  ret i64 %5
}

; Function Attrs: nounwind uwtable
define hidden ptr @lexbor_mraw_free(ptr noundef %0, ptr noundef %1) #0 {
  %3 = alloca ptr, align 8
  %4 = alloca ptr, align 8
  %5 = alloca i64, align 8
  store ptr %0, ptr %3, align 8
  store ptr %1, ptr %4, align 8
  %6 = load ptr, ptr %4, align 8
  %7 = call i64 @lexbor_mraw_data_size(ptr noundef %6)
  store i64 %7, ptr %5, align 8
  %8 = load ptr, ptr %3, align 8
  %9 = getelementptr inbounds %struct.lexbor_mraw_t, ptr %8, i32 0, i32 1
  %10 = load ptr, ptr %9, align 8
  %11 = load ptr, ptr %3, align 8
  %12 = getelementptr inbounds %struct.lexbor_mraw_t, ptr %11, i32 0, i32 1
  %13 = load ptr, ptr %12, align 8
  %14 = getelementptr inbounds %struct.lexbor_bst, ptr %13, i32 0, i32 1
  %15 = load i64, ptr %5, align 8
  %16 = load ptr, ptr %4, align 8
  %17 = call ptr @lexbor_bst_insert(ptr noundef %10, ptr noundef %14, i64 noundef %15, ptr noundef %16)
  %18 = load ptr, ptr %3, align 8
  %19 = getelementptr inbounds %struct.lexbor_mraw_t, ptr %18, i32 0, i32 2
  %20 = load i64, ptr %19, align 8
  %21 = add i64 %20, -1
  store i64 %21, ptr %19, align 8
  ret ptr null
}

; Function Attrs: nounwind uwtable
define internal i64 @lexbor_mem_align_floor(i64 noundef %0) #0 {
  %2 = alloca i64, align 8
  store i64 %0, ptr %2, align 8
  %3 = load i64, ptr %2, align 8
  %4 = urem i64 %3, 8
  %5 = icmp ne i64 %4, 0
  br i1 %5, label %6, label %11

6:                                                ; preds = %1
  %7 = load i64, ptr %2, align 8
  %8 = load i64, ptr %2, align 8
  %9 = urem i64 %8, 8
  %10 = sub i64 %7, %9
  br label %13

11:                                               ; preds = %1
  %12 = load i64, ptr %2, align 8
  br label %13

13:                                               ; preds = %11, %6
  %14 = phi i64 [ %10, %6 ], [ %12, %11 ]
  ret i64 %14
}

; Function Attrs: nounwind uwtable
define internal ptr @lexbor_mraw_realloc_tail(ptr noundef %0, ptr noundef %1, ptr noundef %2, i64 noundef %3, i64 noundef %4, i64 noundef %5, ptr noundef %6) #0 {
  %8 = alloca ptr, align 8
  %9 = alloca ptr, align 8
  %10 = alloca ptr, align 8
  %11 = alloca ptr, align 8
  %12 = alloca i64, align 8
  %13 = alloca i64, align 8
  %14 = alloca i64, align 8
  %15 = alloca ptr, align 8
  %16 = alloca ptr, align 8
  %17 = alloca ptr, align 8
  %18 = alloca %struct.lexbor_mem_chunk, align 8
  store ptr %0, ptr %9, align 8
  store ptr %1, ptr %10, align 8
  store ptr %2, ptr %11, align 8
  store i64 %3, ptr %12, align 8
  store i64 %4, ptr %13, align 8
  store i64 %5, ptr %14, align 8
  store ptr %6, ptr %15, align 8
  %19 = load ptr, ptr %9, align 8
  %20 = getelementptr inbounds %struct.lexbor_mraw_t, ptr %19, i32 0, i32 0
  %21 = load ptr, ptr %20, align 8
  %22 = getelementptr inbounds %struct.lexbor_mem, ptr %21, i32 0, i32 0
  %23 = load ptr, ptr %22, align 8
  store ptr %23, ptr %16, align 8
  %24 = load ptr, ptr %16, align 8
  %25 = getelementptr inbounds %struct.lexbor_mem_chunk, ptr %24, i32 0, i32 2
  %26 = load i64, ptr %25, align 8
  %27 = load i64, ptr %13, align 8
  %28 = load i64, ptr %14, align 8
  %29 = add i64 %27, %28
  %30 = icmp ugt i64 %26, %29
  br i1 %30, label %31, label %48

31:                                               ; preds = %7
  %32 = load ptr, ptr %15, align 8
  store i8 1, ptr %32, align 1
  %33 = load i64, ptr %14, align 8
  %34 = icmp eq i64 %33, 0
  br i1 %34, label %35, label %40

35:                                               ; preds = %31
  %36 = load i64, ptr %13, align 8
  %37 = sub i64 %36, 8
  %38 = load ptr, ptr %16, align 8
  %39 = getelementptr inbounds %struct.lexbor_mem_chunk, ptr %38, i32 0, i32 1
  store i64 %37, ptr %39, align 8
  store ptr null, ptr %8, align 8
  br label %115

40:                                               ; preds = %31
  %41 = load i64, ptr %13, align 8
  %42 = load i64, ptr %14, align 8
  %43 = add i64 %41, %42
  %44 = load ptr, ptr %16, align 8
  %45 = getelementptr inbounds %struct.lexbor_mem_chunk, ptr %44, i32 0, i32 1
  store i64 %43, ptr %45, align 8
  %46 = load ptr, ptr %11, align 8
  call void @llvm.memcpy.p0.p0.i64(ptr align 1 %46, ptr align 8 %14, i64 8, i1 false)
  %47 = load ptr, ptr %10, align 8
  store ptr %47, ptr %8, align 8
  br label %115

48:                                               ; preds = %7
  %49 = load i64, ptr %13, align 8
  %50 = icmp eq i64 %49, 8
  br i1 %50, label %51, label %97

51:                                               ; preds = %48
  %52 = load ptr, ptr %15, align 8
  store i8 1, ptr %52, align 1
  %53 = load ptr, ptr %9, align 8
  %54 = getelementptr inbounds %struct.lexbor_mraw_t, ptr %53, i32 0, i32 0
  %55 = load ptr, ptr %54, align 8
  %56 = load i64, ptr %14, align 8
  %57 = add i64 %56, 8
  %58 = call ptr @lexbor_mem_chunk_init(ptr noundef %55, ptr noundef %18, i64 noundef %57)
  %59 = getelementptr inbounds %struct.lexbor_mem_chunk, ptr %18, i32 0, i32 0
  %60 = load ptr, ptr %59, align 8
  %61 = icmp eq ptr %60, null
  br i1 %61, label %62, label %63

62:                                               ; preds = %51
  store ptr null, ptr %8, align 8
  br label %115

63:                                               ; preds = %51
  br label %64

64:                                               ; preds = %63
  %65 = getelementptr inbounds %struct.lexbor_mem_chunk, ptr %18, i32 0, i32 0
  %66 = load ptr, ptr %65, align 8
  call void @llvm.memcpy.p0.p0.i64(ptr align 1 %66, ptr align 8 %14, i64 8, i1 false)
  br label %67

67:                                               ; preds = %64
  %68 = getelementptr inbounds %struct.lexbor_mem_chunk, ptr %18, i32 0, i32 0
  %69 = load ptr, ptr %68, align 8
  %70 = getelementptr inbounds i8, ptr %69, i64 8
  store ptr %70, ptr %17, align 8
  %71 = load i64, ptr %12, align 8
  %72 = icmp ne i64 %71, 0
  br i1 %72, label %73, label %78

73:                                               ; preds = %67
  %74 = load ptr, ptr %17, align 8
  %75 = load ptr, ptr %10, align 8
  %76 = load i64, ptr %12, align 8
  %77 = mul i64 1, %76
  call void @llvm.memcpy.p0.p0.i64(ptr align 1 %74, ptr align 1 %75, i64 %77, i1 false)
  br label %78

78:                                               ; preds = %73, %67
  %79 = load ptr, ptr %9, align 8
  %80 = getelementptr inbounds %struct.lexbor_mraw_t, ptr %79, i32 0, i32 0
  %81 = load ptr, ptr %80, align 8
  %82 = load ptr, ptr %16, align 8
  %83 = call ptr @lexbor_mem_chunk_destroy(ptr noundef %81, ptr noundef %82, i1 noundef zeroext false)
  %84 = getelementptr inbounds %struct.lexbor_mem_chunk, ptr %18, i32 0, i32 0
  %85 = load ptr, ptr %84, align 8
  %86 = load ptr, ptr %16, align 8
  %87 = getelementptr inbounds %struct.lexbor_mem_chunk, ptr %86, i32 0, i32 0
  store ptr %85, ptr %87, align 8
  %88 = getelementptr inbounds %struct.lexbor_mem_chunk, ptr %18, i32 0, i32 2
  %89 = load i64, ptr %88, align 8
  %90 = load ptr, ptr %16, align 8
  %91 = getelementptr inbounds %struct.lexbor_mem_chunk, ptr %90, i32 0, i32 2
  store i64 %89, ptr %91, align 8
  %92 = load i64, ptr %14, align 8
  %93 = add i64 %92, 8
  %94 = load ptr, ptr %16, align 8
  %95 = getelementptr inbounds %struct.lexbor_mem_chunk, ptr %94, i32 0, i32 1
  store i64 %93, ptr %95, align 8
  %96 = load ptr, ptr %17, align 8
  store ptr %96, ptr %8, align 8
  br label %115

97:                                               ; preds = %48
  %98 = load ptr, ptr %15, align 8
  store i8 0, ptr %98, align 1
  %99 = load i64, ptr %12, align 8
  %100 = load ptr, ptr %16, align 8
  %101 = getelementptr inbounds %struct.lexbor_mem_chunk, ptr %100, i32 0, i32 2
  %102 = load i64, ptr %101, align 8
  %103 = load ptr, ptr %16, align 8
  %104 = getelementptr inbounds %struct.lexbor_mem_chunk, ptr %103, i32 0, i32 1
  %105 = load i64, ptr %104, align 8
  %106 = sub i64 %102, %105
  %107 = add i64 %99, %106
  %108 = call i64 @lexbor_mem_align_floor(i64 noundef %107)
  store i64 %108, ptr %12, align 8
  %109 = load ptr, ptr %11, align 8
  call void @llvm.memcpy.p0.p0.i64(ptr align 1 %109, ptr align 8 %12, i64 8, i1 false)
  %110 = load ptr, ptr %16, align 8
  %111 = getelementptr inbounds %struct.lexbor_mem_chunk, ptr %110, i32 0, i32 2
  %112 = load i64, ptr %111, align 8
  %113 = load ptr, ptr %16, align 8
  %114 = getelementptr inbounds %struct.lexbor_mem_chunk, ptr %113, i32 0, i32 1
  store i64 %112, ptr %114, align 8
  store ptr null, ptr %8, align 8
  br label %115

115:                                              ; preds = %97, %78, %62, %40, %35
  %116 = load ptr, ptr %8, align 8
  ret ptr %116
}

; Function Attrs: nounwind uwtable
define internal i64 @lexbor_mem_align(i64 noundef %0) #0 {
  %2 = alloca i64, align 8
  store i64 %0, ptr %2, align 8
  %3 = load i64, ptr %2, align 8
  %4 = urem i64 %3, 8
  %5 = icmp ne i64 %4, 0
  br i1 %5, label %6, label %12

6:                                                ; preds = %1
  %7 = load i64, ptr %2, align 8
  %8 = load i64, ptr %2, align 8
  %9 = urem i64 %8, 8
  %10 = sub i64 8, %9
  %11 = add i64 %7, %10
  br label %14

12:                                               ; preds = %1
  %13 = load i64, ptr %2, align 8
  br label %14

14:                                               ; preds = %12, %6
  %15 = phi i64 [ %11, %6 ], [ %13, %12 ]
  ret i64 %15
}

; Function Attrs: nounwind uwtable
define hidden ptr @lexbor_mraw_realloc(ptr noundef %0, ptr noundef %1, i64 noundef %2) #0 {
  %4 = alloca ptr, align 8
  %5 = alloca ptr, align 8
  %6 = alloca ptr, align 8
  %7 = alloca i64, align 8
  %8 = alloca ptr, align 8
  %9 = alloca i64, align 8
  %10 = alloca i64, align 8
  %11 = alloca ptr, align 8
  %12 = alloca i8, align 1
  %13 = alloca ptr, align 8
  %14 = alloca i64, align 8
  store ptr %0, ptr %5, align 8
  store ptr %1, ptr %6, align 8
  store i64 %2, ptr %7, align 8
  %15 = load ptr, ptr %5, align 8
  %16 = getelementptr inbounds %struct.lexbor_mraw_t, ptr %15, i32 0, i32 0
  %17 = load ptr, ptr %16, align 8
  %18 = getelementptr inbounds %struct.lexbor_mem, ptr %17, i32 0, i32 0
  %19 = load ptr, ptr %18, align 8
  store ptr %19, ptr %11, align 8
  %20 = load ptr, ptr %6, align 8
  %21 = getelementptr inbounds i8, ptr %20, i64 -8
  store ptr %21, ptr %8, align 8
  %22 = load ptr, ptr %8, align 8
  call void @llvm.memcpy.p0.p0.i64(ptr align 8 %9, ptr align 1 %22, i64 8, i1 false)
  %23 = load i64, ptr %7, align 8
  %24 = call i64 @lexbor_mem_align(i64 noundef %23)
  store i64 %24, ptr %7, align 8
  %25 = load ptr, ptr %11, align 8
  %26 = getelementptr inbounds %struct.lexbor_mem_chunk, ptr %25, i32 0, i32 1
  %27 = load i64, ptr %26, align 8
  %28 = load i64, ptr %9, align 8
  %29 = icmp uge i64 %27, %28
  br i1 %29, label %30, label %59

30:                                               ; preds = %3
  %31 = load ptr, ptr %11, align 8
  %32 = getelementptr inbounds %struct.lexbor_mem_chunk, ptr %31, i32 0, i32 1
  %33 = load i64, ptr %32, align 8
  %34 = load i64, ptr %9, align 8
  %35 = sub i64 %33, %34
  store i64 %35, ptr %10, align 8
  %36 = load ptr, ptr %11, align 8
  %37 = getelementptr inbounds %struct.lexbor_mem_chunk, ptr %36, i32 0, i32 0
  %38 = load ptr, ptr %37, align 8
  %39 = load i64, ptr %10, align 8
  %40 = getelementptr inbounds i8, ptr %38, i64 %39
  %41 = load ptr, ptr %6, align 8
  %42 = icmp eq ptr %40, %41
  br i1 %42, label %43, label %58

43:                                               ; preds = %30
  %44 = load ptr, ptr %5, align 8
  %45 = load ptr, ptr %6, align 8
  %46 = load ptr, ptr %8, align 8
  %47 = load i64, ptr %9, align 8
  %48 = load i64, ptr %10, align 8
  %49 = load i64, ptr %7, align 8
  %50 = call ptr @lexbor_mraw_realloc_tail(ptr noundef %44, ptr noundef %45, ptr noundef %46, i64 noundef %47, i64 noundef %48, i64 noundef %49, ptr noundef %12)
  store ptr %50, ptr %13, align 8
  %51 = load i8, ptr %12, align 1
  %52 = trunc i8 %51 to i1
  %53 = zext i1 %52 to i32
  %54 = icmp eq i32 %53, 1
  br i1 %54, label %55, label %57

55:                                               ; preds = %43
  %56 = load ptr, ptr %13, align 8
  store ptr %56, ptr %4, align 8
  br label %131

57:                                               ; preds = %43
  br label %58

58:                                               ; preds = %57, %30
  br label %59

59:                                               ; preds = %58, %3
  %60 = load i64, ptr %7, align 8
  %61 = load i64, ptr %9, align 8
  %62 = icmp ult i64 %60, %61
  br i1 %62, label %63, label %111

63:                                               ; preds = %59
  %64 = load i64, ptr %7, align 8
  %65 = icmp eq i64 %64, 0
  br i1 %65, label %66, label %81

66:                                               ; preds = %63
  %67 = load ptr, ptr %5, align 8
  %68 = getelementptr inbounds %struct.lexbor_mraw_t, ptr %67, i32 0, i32 2
  %69 = load i64, ptr %68, align 8
  %70 = add i64 %69, -1
  store i64 %70, ptr %68, align 8
  %71 = load ptr, ptr %5, align 8
  %72 = getelementptr inbounds %struct.lexbor_mraw_t, ptr %71, i32 0, i32 1
  %73 = load ptr, ptr %72, align 8
  %74 = load ptr, ptr %5, align 8
  %75 = getelementptr inbounds %struct.lexbor_mraw_t, ptr %74, i32 0, i32 1
  %76 = load ptr, ptr %75, align 8
  %77 = getelementptr inbounds %struct.lexbor_bst, ptr %76, i32 0, i32 1
  %78 = load i64, ptr %9, align 8
  %79 = load ptr, ptr %6, align 8
  %80 = call ptr @lexbor_bst_insert(ptr noundef %73, ptr noundef %77, i64 noundef %78, ptr noundef %79)
  store ptr null, ptr %4, align 8
  br label %131

81:                                               ; preds = %63
  %82 = load i64, ptr %9, align 8
  %83 = load i64, ptr %7, align 8
  %84 = sub i64 %82, %83
  %85 = call i64 @lexbor_mem_align_floor(i64 noundef %84)
  store i64 %85, ptr %14, align 8
  %86 = load i64, ptr %14, align 8
  %87 = icmp ugt i64 %86, 8
  br i1 %87, label %88, label %109

88:                                               ; preds = %81
  %89 = load ptr, ptr %8, align 8
  call void @llvm.memcpy.p0.p0.i64(ptr align 1 %89, ptr align 8 %7, i64 8, i1 false)
  %90 = load i64, ptr %14, align 8
  %91 = sub i64 %90, 8
  store i64 %91, ptr %7, align 8
  %92 = load ptr, ptr %6, align 8
  %93 = load i64, ptr %14, align 8
  %94 = getelementptr inbounds i8, ptr %92, i64 %93
  store ptr %94, ptr %8, align 8
  br label %95

95:                                               ; preds = %88
  %96 = load ptr, ptr %8, align 8
  call void @llvm.memcpy.p0.p0.i64(ptr align 1 %96, ptr align 8 %7, i64 8, i1 false)
  br label %97

97:                                               ; preds = %95
  %98 = load ptr, ptr %5, align 8
  %99 = getelementptr inbounds %struct.lexbor_mraw_t, ptr %98, i32 0, i32 1
  %100 = load ptr, ptr %99, align 8
  %101 = load ptr, ptr %5, align 8
  %102 = getelementptr inbounds %struct.lexbor_mraw_t, ptr %101, i32 0, i32 1
  %103 = load ptr, ptr %102, align 8
  %104 = getelementptr inbounds %struct.lexbor_bst, ptr %103, i32 0, i32 1
  %105 = load i64, ptr %7, align 8
  %106 = load ptr, ptr %8, align 8
  %107 = getelementptr inbounds i8, ptr %106, i64 8
  %108 = call ptr @lexbor_bst_insert(ptr noundef %100, ptr noundef %104, i64 noundef %105, ptr noundef %107)
  br label %109

109:                                              ; preds = %97, %81
  %110 = load ptr, ptr %6, align 8
  store ptr %110, ptr %4, align 8
  br label %131

111:                                              ; preds = %59
  %112 = load ptr, ptr %5, align 8
  %113 = load i64, ptr %7, align 8
  %114 = call ptr @lexbor_mraw_alloc(ptr noundef %112, i64 noundef %113)
  store ptr %114, ptr %8, align 8
  %115 = load ptr, ptr %8, align 8
  %116 = icmp eq ptr %115, null
  br i1 %116, label %117, label %118

117:                                              ; preds = %111
  store ptr null, ptr %4, align 8
  br label %131

118:                                              ; preds = %111
  %119 = load i64, ptr %9, align 8
  %120 = icmp ne i64 %119, 0
  br i1 %120, label %121, label %126

121:                                              ; preds = %118
  %122 = load ptr, ptr %8, align 8
  %123 = load ptr, ptr %6, align 8
  %124 = load i64, ptr %9, align 8
  %125 = mul i64 1, %124
  call void @llvm.memcpy.p0.p0.i64(ptr align 1 %122, ptr align 1 %123, i64 %125, i1 false)
  br label %126

126:                                              ; preds = %121, %118
  %127 = load ptr, ptr %5, align 8
  %128 = load ptr, ptr %6, align 8
  %129 = call ptr @lexbor_mraw_free(ptr noundef %127, ptr noundef %128)
  %130 = load ptr, ptr %8, align 8
  store ptr %130, ptr %4, align 8
  br label %131

131:                                              ; preds = %126, %117, %109, %66, %55
  %132 = load ptr, ptr %4, align 8
  ret ptr %132
}