; Function Attrs: nounwind uwtable
define hidden ptr @lexbor_mraw_realloc(ptr nocapture noundef %0, ptr noundef %1, i64 noundef %2) local_unnamed_addr #0 {
  %4 = alloca %struct.lexbor_mem_chunk, align 8
  %5 = load ptr, ptr %0, align 8
  %6 = load ptr, ptr %5, align 8
  %7 = getelementptr inbounds i8, ptr %1, i64 -8
  %.0.copyload = load i64, ptr %7, align 1
  %.biased.i = add i64 %2, 7
  %8 = and i64 %.biased.i, -8
  %9 = getelementptr inbounds i8, ptr %6, i64 8
  %10 = load i64, ptr %9, align 8
  %.not = icmp ult i64 %10, %.0.copyload
  br i1 %.not, label %47, label %11

11:                                               ; preds = %3
  %12 = sub i64 %10, %.0.copyload
  %13 = load ptr, ptr %6, align 8
  %14 = getelementptr inbounds i8, ptr %13, i64 %12
  %15 = icmp eq ptr %14, %1
  br i1 %15, label %16, label %47

16:                                               ; preds = %11
  call void @llvm.lifetime.start.p0(i64 40, ptr nonnull %4)
  %17 = getelementptr inbounds i8, ptr %6, i64 16
  %18 = load i64, ptr %17, align 8
  %19 = add i64 %12, %8
  %20 = icmp ugt i64 %18, %19
  br i1 %20, label %21, label %26

21:                                               ; preds = %16
  %22 = icmp eq i64 %8, 0
  br i1 %22, label %23, label %25

23:                                               ; preds = %21
  %24 = add i64 %12, -8
  store i64 %24, ptr %9, align 8
  br label %lexbor_mraw_realloc_tail.exit.thread

25:                                               ; preds = %21
  store i64 %19, ptr %9, align 8
  store i64 %8, ptr %7, align 1
  br label %lexbor_mraw_realloc_tail.exit.thread

26:                                               ; preds = %16
  %27 = icmp eq i64 %12, 8
  br i1 %27, label %28, label %lexbor_mraw_realloc_tail.exit

28:                                               ; preds = %26
  %29 = add i64 %8, 8
  %30 = call ptr @lexbor_mem_chunk_init(ptr noundef nonnull %5, ptr noundef nonnull %4, i64 noundef %29) #7
  %31 = load ptr, ptr %4, align 8
  %32 = icmp eq ptr %31, null
  br i1 %32, label %lexbor_mraw_realloc_tail.exit.thread, label %33

33:                                               ; preds = %28
  store i64 %8, ptr %31, align 1
  %34 = load ptr, ptr %4, align 8
  %35 = getelementptr inbounds i8, ptr %34, i64 8
  %.not.i = icmp eq i64 %.0.copyload, 0
  br i1 %.not.i, label %37, label %36

36:                                               ; preds = %33
  call void @llvm.memcpy.p0.p0.i64(ptr nonnull align 1 %35, ptr nonnull align 1 %1, i64 %.0.copyload, i1 false)
  br label %37

37:                                               ; preds = %36, %33
  %38 = load ptr, ptr %0, align 8
  %39 = call ptr @lexbor_mem_chunk_destroy(ptr noundef %38, ptr noundef nonnull %6, i1 noundef zeroext false) #7
  %40 = load ptr, ptr %4, align 8
  store ptr %40, ptr %6, align 8
  %41 = getelementptr inbounds i8, ptr %4, i64 16
  %42 = load i64, ptr %41, align 8
  store i64 %42, ptr %17, align 8
  store i64 %29, ptr %9, align 8
  br label %lexbor_mraw_realloc_tail.exit.thread

lexbor_mraw_realloc_tail.exit.thread:             ; preds = %23, %25, %28, %37
  %.0.i.ph = phi ptr [ null, %28 ], [ %35, %37 ], [ %1, %25 ], [ null, %23 ]
  call void @llvm.lifetime.end.p0(i64 40, ptr nonnull %4)
  br label %84

lexbor_mraw_realloc_tail.exit:                    ; preds = %26
  %43 = add i64 %18, %.0.copyload
  %44 = sub i64 %43, %10
  %45 = and i64 %44, -8
  store i64 %45, ptr %7, align 1
  %46 = load i64, ptr %17, align 8
  store i64 %46, ptr %9, align 8
  call void @llvm.lifetime.end.p0(i64 40, ptr nonnull %4)
  br label %47

47:                                               ; preds = %lexbor_mraw_realloc_tail.exit, %11, %3
  %48 = icmp ult i64 %8, %.0.copyload
  br i1 %48, label %49, label %71

49:                                               ; preds = %47
  %50 = icmp eq i64 %8, 0
  br i1 %50, label %51, label %59

51:                                               ; preds = %49
  %52 = getelementptr inbounds i8, ptr %0, i64 16
  %53 = load i64, ptr %52, align 8
  %54 = add i64 %53, -1
  store i64 %54, ptr %52, align 8
  %55 = getelementptr inbounds i8, ptr %0, i64 8
  %56 = load ptr, ptr %55, align 8
  %57 = getelementptr inbounds i8, ptr %56, i64 8
  %58 = tail call ptr @lexbor_bst_insert(ptr noundef %56, ptr noundef nonnull %57, i64 noundef %.0.copyload, ptr noundef nonnull %1) #7
  br label %84

59:                                               ; preds = %49
  %60 = sub i64 %.0.copyload, %8
  %61 = and i64 %60, -8
  %62 = icmp ugt i64 %61, 8
  br i1 %62, label %63, label %84

63:                                               ; preds = %59
  store i64 %8, ptr %7, align 1
  %64 = add i64 %61, -8
  %65 = getelementptr inbounds i8, ptr %1, i64 %61
  store i64 %64, ptr %65, align 1
  %66 = getelementptr inbounds i8, ptr %0, i64 8
  %67 = load ptr, ptr %66, align 8
  %68 = getelementptr inbounds i8, ptr %67, i64 8
  %69 = getelementptr inbounds i8, ptr %65, i64 8
  %70 = tail call ptr @lexbor_bst_insert(ptr noundef %67, ptr noundef nonnull %68, i64 noundef %64, ptr noundef nonnull %69) #7
  br label %84

71:                                               ; preds = %47
  %72 = tail call ptr @lexbor_mraw_alloc(ptr noundef nonnull %0, i64 noundef %8)
  %73 = icmp eq ptr %72, null
  br i1 %73, label %84, label %74

74:                                               ; preds = %71
  %.not57 = icmp eq i64 %.0.copyload, 0
  br i1 %.not57, label %76, label %75

75:                                               ; preds = %74
  tail call void @llvm.memcpy.p0.p0.i64(ptr nonnull align 1 %72, ptr nonnull align 1 %1, i64 %.0.copyload, i1 false)
  br label %76

76:                                               ; preds = %75, %74
  %.val.i = load i64, ptr %7, align 8
  %77 = getelementptr inbounds i8, ptr %0, i64 8
  %78 = load ptr, ptr %77, align 8
  %79 = getelementptr inbounds i8, ptr %78, i64 8
  %80 = tail call ptr @lexbor_bst_insert(ptr noundef %78, ptr noundef nonnull %79, i64 noundef %.val.i, ptr noundef nonnull %1) #7
  %81 = getelementptr inbounds i8, ptr %0, i64 16
  %82 = load i64, ptr %81, align 8
  %83 = add i64 %82, -1
  store i64 %83, ptr %81, align 8
  br label %84

84:                                               ; preds = %lexbor_mraw_realloc_tail.exit.thread, %71, %59, %63, %76, %51
  %.0 = phi ptr [ null, %51 ], [ %72, %76 ], [ %1, %63 ], [ %1, %59 ], [ null, %71 ], [ %.0.i.ph, %lexbor_mraw_realloc_tail.exit.thread ]
  ret ptr %.0
}